Certificate:
    Data:
        Version: 1 (0x0)
        Serial Number: 4103 (0x1007)
        Signature Algorithm: sha256WithRSAEncryption
        Issuer: C=FR, O=HAProxy Technologies, CN=Intermediate CA1
        Validity
            Not Before: Apr 22 15:16:27 2021 GMT
            Not After : Sep  7 15:16:27 2048 GMT
        Subject: C=FR, O=HAProxy Technologies, CN=Client
        Subject Public Key Info:
            Public Key Algorithm: rsaEncryption
                RSA Public-Key: (2048 bit)
                Modulus:
                    00:bb:d6:23:03:04:ae:d2:41:19:3c:6a:91:f1:41:
                    07:2f:db:87:fa:ac:d5:c3:ad:db:cd:b3:fd:fa:55:
                    78:3d:eb:b1:50:98:ce:de:f7:1d:44:42:56:15:e6:
                    cf:f3:75:d5:54:90:39:07:54:70:d1:d2:71:f9:26:
                    96:79:14:8b:20:e0:7c:dd:8f:d0:13:f1:16:a5:85:
                    52:5f:ff:16:bf:3d:f3:5b:78:e8:00:6e:0b:79:6a:
                    b7:c3:17:49:df:96:1a:7f:c7:e0:cf:c6:01:03:55:
                    af:36:03:95:aa:95:93:08:75:e4:46:86:9f:af:23:
                    69:ac:fa:65:f0:5d:5a:97:f6:36:78:b2:a7:11:a7:
                    93:8b:6b:4b:c4:54:67:b1:82:23:91:72:0f:d9:8b:
                    d8:1a:b4:d4:99:9e:cd:3f:3c:34:73:48:ba:cd:f4:
                    7d:c8:9f:b2:17:a8:90:9c:e6:c2:f3:46:39:8b:06:
                    af:d0:df:e7:7d:05:92:33:4d:08:80:17:e7:a7:39:
                    49:eb:f1:35:06:ac:07:d6:0b:1a:4d:55:ae:26:1a:
                    49:4a:a1:b2:5f:c5:8b:39:98:2c:0c:63:41:2e:be:
                    0e:3f:5c:c3:3a:39:25:2a:23:a3:a2:d3:51:03:cb:
                    81:5e:76:04:76:a8:fb:80:a8:5b:19:9f:6c:e3:d7:
                    31:ff
                Exponent: 65537 (0x10001)
    Signature Algorithm: sha256WithRSAEncryption
         71:76:f0:82:f0:06:c8:ed:5a:dd:92:37:16:82:c5:9c:dd:7d:
         65:b7:47:ee:d5:3c:cc:cd:69:d2:57:83:6a:c1:20:ef:28:a8:
         b9:c2:db:1b:2b:e1:36:95:e5:e7:03:84:67:64:20:ff:ed:a4:
         3c:8b:d5:35:32:fe:7e:c8:c5:fc:04:15:ef:be:de:56:dc:f6:
         d8:cc:1c:fb:03:02:01:66:fa:e4:2b:3f:2c:3e:9b:46:ec:29:
         f3:02:1b:d4:c2:be:fe:fa:4d:0c:48:e0:d7:af:30:ca:6c:b3:
         ea:0b:60:5b:a5:17:17:6f:f6:2f:0b:25:db:7c:ce:65:a5:94:
         94:09:84:10:39:1e:69:16:e5:0e:bc:1e:96:68:88:54:39:83:
         b6:0f:74:61:6a:1c:d3:b6:65:36:bc:4f:75:30:9a:84:8f:98:
         68:ab:61:ab:57:88:8b:7c:64:7b:7f:39:a7:56:8a:e0:88:e3:
         66:7d:2c:0a:eb:f3:aa:9c:a6:f4:88:e1:0b:58:66:69:06:6b:
         93:e8:78:52:56:fc:7f:96:69:1d:76:40:30:fa:d6:4a:c7:2a:
         47:24:e0:cd:14:32:74:70:ba:b7:b4:0f:33:ca:3a:3c:75:49:
         ff:65:2e:4f:65:e3:79:14:1f:76:5e:3f:44:39:60:42:df:97:
         0e:f3:a2:2e
-----BEGIN CERTIFICATE-----
MIIC+TCCAeECAhAHMA0GCSqGSIb3DQEBCwUAMEcxCzAJBgNVBAYTAkZSMR0wGwYD
VQQKDBRIQVByb3h5IFRlY2hub2xvZ2llczEZMBcGA1UEAwwQSW50ZXJtZWRpYXRl
IENBMTAeFw0yMTA0MjIxNTE2MjdaFw00ODA5MDcxNTE2MjdaMD0xCzAJBgNVBAYT
AkZSMR0wGwYDVQQKDBRIQVByb3h5IFRlY2hub2xvZ2llczEPMA0GA1UEAwwGQ2xp
ZW50MIIBIjANBgkqhkiG9w0BAQEFAAOCAQ8AMIIBCgKCAQEAu9YjAwSu0kEZPGqR
8UEHL9uH+qzVw63bzbP9+lV4PeuxUJjO3vcdREJWFebP83XVVJA5B1Rw0dJx+SaW
eRSLIOB83Y/QE/EWpYVSX/8Wvz3zW3joAG4LeWq3wxdJ35Yaf8fgz8YBA1WvNgOV
qpWTCHXkRoafryNprPpl8F1al/Y2eLKnEaeTi2tLxFRnsYIjkXIP2YvYGrTUmZ7N
Pzw0c0i6zfR9yJ+yF6iQnObC80Y5iwav0N/nfQWSM00IgBfnpzlJ6/E1BqwH1gsa
TVWuJhpJSqGyX8WLOZgsDGNBLr4OP1zDOjklKiOjotNRA8uBXnYEdqj7gKhbGZ9s
49cx/wIDAQABMA0GCSqGSIb3DQEBCwUAA4IBAQBxdvCC8AbI7VrdkjcWgsWc3X1l
t0fu1TzMzWnSV4NqwSDvKKi5wtsbK+E2leXnA4RnZCD/7aQ8i9U1Mv5+yMX8BBXv
vt5W3PbYzBz7AwIBZvrkKz8sPptG7CnzAhvUwr7++k0MSODXrzDKbLPqC2BbpRcX
b/YvCyXbfM5lpZSUCYQQOR5pFuUOvB6WaIhUOYO2D3RhahzTtmU2vE91MJqEj5ho
q2GrV4iLfGR7fzmnVorgiONmfSwK6/OqnKb0iOELWGZpBmuT6HhSVvx/lmkddkAw
+tZKxypHJODNFDJ0cLq3tA8zyjo8dUn/ZS5PZeN5FB92Xj9EOWBC35cO86Iu
-----END CERTIFICATE-----
-----BEGIN PRIVATE KEY-----
MIIEvgIBADANBgkqhkiG9w0BAQEFAASCBKgwggSkAgEAAoIBAQC71iMDBK7SQRk8
apHxQQcv24f6rNXDrdvNs/36VXg967FQmM7e9x1EQlYV5s/zddVUkDkHVHDR0nH5
JpZ5FIsg4Hzdj9AT8RalhVJf/xa/PfNbeOgAbgt5arfDF0nflhp/x+DPxgEDVa82
A5WqlZMIdeRGhp+vI2ms+mXwXVqX9jZ4sqcRp5OLa0vEVGexgiORcg/Zi9gatNSZ
ns0/PDRzSLrN9H3In7IXqJCc5sLzRjmLBq/Q3+d9BZIzTQiAF+enOUnr8TUGrAfW
CxpNVa4mGklKobJfxYs5mCwMY0Euvg4/XMM6OSUqI6Oi01EDy4FedgR2qPuAqFsZ
n2zj1zH/AgMBAAECggEAE60Fs948tdeN3i9HpF7scs3rO435Qmsm2DBfjWaAlvPm
egvXt7FpBmpwfBDWfak9NIN7BdKJkuEZgUDSiFJnlIUPb2IOKNibR7FkhJvC9Tt3
D4DlxI3Cc/CC2VPKMDqYAgSc/wa9umyyUtUjS2Apq7w1slGNzpnGCxGbtgcBY2OA
ILjPffpVYJv87LijTIozScjx/Xdub5fWgcLtByWEDk8SxAb47qAAIAjbilpARWmf
CHOeF+BG7ku2PT9+tLeMDabwRctNs88pef4+Dbe9+2Ess+2bdsG8As1/fw49QCnm
ODNV1wPXdpS5wHEEdLxnQNXOQEVSRrVOhz5KWG3F0QKBgQDo/LXfjzcrNoVRG29/
4l9aInk0+5tE4MCsM828LBmGxbYsQqt2g3ZGQCNW2IfnwQOYlujIm+F7ZYivT5Dq
j3QvuuHjo/EGz4JuJef1oSkWeYVLm+gSzlmt5EzYximtfnEBBeJJh1Zl0R8nQfWh
RjRMTboVC22dcBSVJdCM+lg8uQKBgQDOY8A2HxDuK3RyVgz9/YtIEqtMg2tzh0jE
NnqPcy0AGMc1V1lmhn9ZHuUwspc3ZCi7gHRSjFoW+SWIIDFcPqRcZ5ZPxIejhwtF
vbi20OAx+mbSdXjyYH0Z/CaVOIMHKaOWv6EbYLWIjVRGfLsMHl1xzYjE8SiNdcMf
naLjF564dwKBgQDStSmuw5D7TdWIIq3WFF5z39WKazpjMnhNxJP96Ew1rL0yjiEP
j5j5s6vCMRXILLEZ4PEp7IAh3xOcqPLAj3heaj88ZtnmdOjawQFlDZlhMAmy9Y8O
4vwL3fr52U18EGwWpsGeCf3DGzt3f5mrfxhxIaJ2wd0ik2ip8ocH2KjQUQKBgQCS
D23730hwBTjHobZYGZL0UqH/6BGnFNqeYZ+i3XO/WcnBKiwOrqh5PbAdIoZ5oNxi
tamcsc8f6vpwt7e2/G39JyHtGbyUMgH8PSP33SKMvBUAZDpP7ZEbTqNPf0rbStCG
4t71LR/Ln5lAuQz2qpae70IXfkOguPJ58WlRJWoiSQKBgHwgYsjep0Ms/ZJkkhAp
59vwahpyWmnq/Wm6I9eyM84H+VQNqJf9/pQ3q3afPl4hRQydpenPBQF3GJ1m/9Nb
BenesNrmJabCBYsaZEnwOnb7xlai5xjBEQxAJ5ROxdmTYmA0xWzuGwuu9fHwdCvW
2ZXtTzEEzU7mLUhbiQWAF+H4
-----END PRIVATE KEY-----
