Certificate:
    Data:
        Version: 1 (0x0)
        Serial Number: 4104 (0x1008)
        Signature Algorithm: sha256WithRSAEncryption
        Issuer: C=FR, O=HAProxy Technologies, CN=Intermediate CA2
        Validity
            Not Before: Apr 22 15:18:37 2021 GMT
            Not After : Sep  7 15:18:37 2048 GMT
        Subject: C=FR, O=HAProxy Technologies, CN=Server
        Subject Public Key Info:
            Public Key Algorithm: rsaEncryption
                RSA Public-Key: (2048 bit)
                Modulus:
                    00:a3:9f:14:1d:de:57:84:a9:8e:17:2a:75:92:be:
                    70:0e:6d:95:82:36:7a:2d:b2:57:e3:82:fd:20:be:
                    83:e5:71:0a:ae:3e:58:cc:31:bc:42:12:e7:42:50:
                    9d:47:c6:f4:02:01:1f:6e:a1:74:38:12:27:df:45:
                    23:56:9a:b7:74:cb:f1:5a:1a:35:60:0d:6d:59:5e:
                    71:87:19:9e:84:16:3a:69:ff:8d:ea:b2:77:dd:40:
                    d1:8f:c8:5d:35:c1:53:a4:0b:3f:73:c4:c2:03:52:
                    2a:f1:bf:dc:2f:32:75:d3:2b:d2:e7:3a:de:ac:ac:
                    43:59:f1:be:52:a7:30:51:54:ff:3d:a4:5f:97:e7:
                    f8:aa:65:86:b4:7d:a6:9d:c4:2d:94:68:2d:71:dc:
                    5c:d2:2f:bf:d4:9c:ca:7e:2e:97:a7:10:ad:d9:ad:
                    8b:74:c9:dd:91:54:71:83:1c:51:17:7e:1b:10:fc:
                    00:c3:f7:5b:43:76:2d:a3:1e:93:a5:c4:cb:c1:eb:
                    8e:df:a3:6c:6e:31:1e:27:fc:40:54:ac:8e:a2:ba:
                    6d:d3:26:0d:ef:8b:e6:20:18:55:fd:11:37:61:90:
                    40:48:d9:86:fc:34:0b:9c:65:1b:d5:02:02:28:16:
                    08:1f:df:d8:91:8b:be:89:63:1a:09:27:00:4c:a4:
                    f4:59
                Exponent: 65537 (0x10001)
    Signature Algorithm: sha256WithRSAEncryption
         01:be:4e:27:fe:cd:03:c9:df:30:5f:a8:e5:b7:33:21:a1:9e:
         d3:1f:cb:4c:00:64:a0:47:c6:73:c8:f8:f5:a5:f3:ee:8d:b4:
         2c:b9:7a:47:71:fb:4a:bd:a4:df:c9:b2:2b:06:f5:77:69:ec:
         c6:90:8d:16:d0:3d:fa:c0:fb:30:50:39:56:0f:2b:78:15:0a:
         c2:62:6a:98:59:70:aa:6b:61:55:58:ee:50:b7:cf:d3:7c:0a:
         24:04:3d:db:ab:bc:c4:ba:82:52:0c:62:4b:aa:48:47:f4:4f:
         05:d8:4f:b2:88:f1:d6:1a:10:e1:bc:98:0b:b9:7f:f9:47:21:
         89:7a:37:61:f0:1a:e3:1d:c1:23:ba:71:8d:c8:de:cc:b0:da:
         6a:21:5c:41:02:a1:8a:6a:d4:02:32:de:a9:84:97:38:27:de:
         2d:8c:bc:c4:fa:a9:fc:3a:7c:58:92:62:20:4b:be:60:25:f6:
         f4:4e:49:a1:b2:f3:e3:97:7c:84:cd:6c:f5:42:e6:3f:ca:34:
         a3:26:c7:91:e4:0c:8c:df:36:5e:6b:68:e6:45:2d:c0:af:56:
         3c:1e:85:46:79:db:85:6e:98:49:69:ea:4f:fc:00:fc:23:8c:
         dc:b8:fe:b9:fd:f9:fb:ec:28:f0:1a:f7:3c:b4:74:38:5e:71:
         bc:1e:39:90
-----BEGIN CERTIFICATE-----
MIIC+TCCAeECAhAIMA0GCSqGSIb3DQEBCwUAMEcxCzAJBgNVBAYTAkZSMR0wGwYD
VQQKDBRIQVByb3h5IFRlY2hub2xvZ2llczEZMBcGA1UEAwwQSW50ZXJtZWRpYXRl
IENBMjAeFw0yMTA0MjIxNTE4MzdaFw00ODA5MDcxNTE4MzdaMD0xCzAJBgNVBAYT
AkZSMR0wGwYDVQQKDBRIQVByb3h5IFRlY2hub2xvZ2llczEPMA0GA1UEAwwGU2Vy
dmVyMIIBIjANBgkqhkiG9w0BAQEFAAOCAQ8AMIIBCgKCAQEAo58UHd5XhKmOFyp1
kr5wDm2VgjZ6LbJX44L9IL6D5XEKrj5YzDG8QhLnQlCdR8b0AgEfbqF0OBIn30Uj
Vpq3dMvxWho1YA1tWV5xhxmehBY6af+N6rJ33UDRj8hdNcFTpAs/c8TCA1Iq8b/c
LzJ10yvS5zrerKxDWfG+UqcwUVT/PaRfl+f4qmWGtH2mncQtlGgtcdxc0i+/1JzK
fi6XpxCt2a2LdMndkVRxgxxRF34bEPwAw/dbQ3Ytox6TpcTLweuO36NsbjEeJ/xA
VKyOorpt0yYN74vmIBhV/RE3YZBASNmG/DQLnGUb1QICKBYIH9/YkYu+iWMaCScA
TKT0WQIDAQABMA0GCSqGSIb3DQEBCwUAA4IBAQABvk4n/s0Dyd8wX6jltzMhoZ7T
H8tMAGSgR8ZzyPj1pfPujbQsuXpHcftKvaTfybIrBvV3aezGkI0W0D36wPswUDlW
Dyt4FQrCYmqYWXCqa2FVWO5Qt8/TfAokBD3bq7zEuoJSDGJLqkhH9E8F2E+yiPHW
GhDhvJgLuX/5RyGJejdh8BrjHcEjunGNyN7MsNpqIVxBAqGKatQCMt6phJc4J94t
jLzE+qn8OnxYkmIgS75gJfb0TkmhsvPjl3yEzWz1QuY/yjSjJseR5AyM3zZea2jm
RS3Ar1Y8HoVGeduFbphJaepP/AD8I4zcuP65/fn77CjwGvc8tHQ4XnG8HjmQ
-----END CERTIFICATE-----
-----BEGIN PRIVATE KEY-----
MIIEvQIBADANBgkqhkiG9w0BAQEFAASCBKcwggSjAgEAAoIBAQCjnxQd3leEqY4X
KnWSvnAObZWCNnotslfjgv0gvoPlcQquPljMMbxCEudCUJ1HxvQCAR9uoXQ4Eiff
RSNWmrd0y/FaGjVgDW1ZXnGHGZ6EFjpp/43qsnfdQNGPyF01wVOkCz9zxMIDUirx
v9wvMnXTK9LnOt6srENZ8b5SpzBRVP89pF+X5/iqZYa0faadxC2UaC1x3FzSL7/U
nMp+LpenEK3ZrYt0yd2RVHGDHFEXfhsQ/ADD91tDdi2jHpOlxMvB647fo2xuMR4n
/EBUrI6ium3TJg3vi+YgGFX9ETdhkEBI2Yb8NAucZRvVAgIoFggf39iRi76JYxoJ
JwBMpPRZAgMBAAECggEAAj1OKC5/4ifz8us42r5SiFAFqNeYCoITY+DKGCWjZoOK
kuH1ky3nFrxtf+HclTvq4RAk3v3EunO9KfgnSKsrcaTM89/B9UOZyIxbX28BVWt8
dzDxP1IcA+I8PAyRAghYXbltr+b0hNkeD1sB5394T2CdLV8H5zMgZN3DLhxts99B
V6fp77eSxKvjCByKzTvlECYwxt6GnkAfZulmYGtThBoTyIz9clzl2lcpoPwp9VpF
IwYn6qig4Gfkrwj/2iMg3b6KOQIGcbH493cGmU+ujK1l4ZbkG6VIYHqLnbD+myui
LpUjUeZPigvgvhkdakGyrwqBxqNFDMOFTdunKuZ65QKBgQDVKKuAf5NeBWAPUiaN
AI82+4RTIecw5svrgk/9qSNCVnUwm9qJHyDpJZLvYUXcfB1CW6iYUQ9oo/+RvK5O
YhouwQotKMI7moIyUiRhvOSFC/7QFYLSf8uMOPlYOxofq1OAqzAsGTHItrydu709
sdox1alxroScpRfZm8I2fm9l4wKBgQDEgaKDTY3UgpY/KWH4SWMc0+UD9ordf96m
E9rYTLW7pleZB/L5YvmpAiewUvwk1YipiLh0fQZVEx1BKirzmiWeLm2FO4SX7z9t
kMeVb3XiGgeoTdPV98YNfB6tx3+2WEYQ5FkvyABsdoUp6e8AkwbFPZnFmM/a0ZSU
Ob/Sfq8xkwKBgCfzTmlv/7PAeCeG8xi8QRtB+qQGF6mPqCqEqu9U0vns8Fvi6guH
HQj1dNuOtKRFUsqMGUYq8yNekVjELzsboeKfZYPfPsAjDkHWKWF0ILRa8jAXyAQh
1Yl7aChEM3o6BxV3gDjTpAQFU8aQWECG4+kxLWfUGKCvRJARZE4IVmKXAoGAU2Hy
tKaW9ULIQFruAG4biWL8fbcC68RTlMM+DKRYRRzrdLsjxeDSsX2Bm9dKuNKHH/Es
2/klU7o9oqYi/aU+KyXmQS+lLtdNYc+acPWP3vZOo4MKzXNK7fPqDLFnptdEO+y5
T4Ydb+jGzqc+TE8XA2EFPAyAvohJ9K+gjtBExNMCgYEAhQSFwr8FRE4TVJT9zTxG
PUsKzCMin5ewrYSVReBBKSEymrEC2MhsDgikfJHbDF4N3o8gbhXJKf3LcLJH0761
y6Wt+0tyfUWk4Zv8oliiZi9vcFeNmArLW5+NHQLBh5SX2UXGRmtguZUAs1gkAe5E
S3GzLHPhcWNEOE/PxejIRKI=
-----END PRIVATE KEY-----
